; Function Attrs: nounwind uwtable
define void @Zyx_ManFree(ptr noundef captures(none) %0) local_unnamed_addr #2 {
  %2 = getelementptr inbounds nuw i8, ptr %0, i64 8808
  %3 = load ptr, ptr %2, align 8
  tail call void @bmcg_sat_solver_stop(ptr noundef %3) #22
  %4 = getelementptr inbounds nuw i8, ptr %0, i64 40
  %5 = load ptr, ptr %4, align 8
  %6 = getelementptr inbounds nuw i8, ptr %5, i64 8
  %7 = load ptr, ptr %6, align 8
  %.not.i = icmp eq ptr %7, null
  br i1 %.not.i, label %Vec_WrdFree.exit, label %8

8:                                                ; preds = %1
  tail call void @free(ptr noundef nonnull %7) #22
  br label %Vec_WrdFree.exit

Vec_WrdFree.exit:                                 ; preds = %1, %8
  tail call void @free(ptr noundef nonnull %5) #22
  %9 = getelementptr inbounds nuw i8, ptr %0, i64 64
  %10 = load ptr, ptr %9, align 8
  %11 = icmp eq ptr %10, null
  br i1 %11, label %Vec_BitFreeP.exit, label %12

12:                                               ; preds = %Vec_WrdFree.exit
  %13 = getelementptr inbounds nuw i8, ptr %10, i64 8
  %14 = load ptr, ptr %13, align 8
  %.not.i9 = icmp eq ptr %14, null
  br i1 %.not.i9, label %.thread.i, label %15

15:                                               ; preds = %12
  tail call void @free(ptr noundef nonnull %14) #22
  %16 = load ptr, ptr %9, align 8
  %17 = getelementptr inbounds nuw i8, ptr %16, i64 8
  store ptr null, ptr %17, align 8
  %.pre.i = load ptr, ptr %9, align 8
  %.not9.i = icmp eq ptr %.pre.i, null
  br i1 %.not9.i, label %Vec_BitFreeP.exit, label %.thread.i

.thread.i:                                        ; preds = %15, %12
  %18 = phi ptr [ %.pre.i, %15 ], [ %10, %12 ]
  tail call void @free(ptr noundef nonnull %18) #22
  store ptr null, ptr %9, align 8
  br label %Vec_BitFreeP.exit

Vec_BitFreeP.exit:                                ; preds = %Vec_WrdFree.exit, %15, %.thread.i
  %19 = getelementptr inbounds nuw i8, ptr %0, i64 72
  %20 = load ptr, ptr %19, align 8
  %21 = icmp eq ptr %20, null
  br i1 %21, label %Vec_BitFreeP.exit14, label %22

22:                                               ; preds = %Vec_BitFreeP.exit
  %23 = getelementptr inbounds nuw i8, ptr %20, i64 8
  %24 = load ptr, ptr %23, align 8
  %.not.i10 = icmp eq ptr %24, null
  br i1 %.not.i10, label %.thread.i13, label %25

25:                                               ; preds = %22
  tail call void @free(ptr noundef nonnull %24) #22
  %26 = load ptr, ptr %19, align 8
  %27 = getelementptr inbounds nuw i8, ptr %26, i64 8
  store ptr null, ptr %27, align 8
  %.pre.i11 = load ptr, ptr %19, align 8
  %.not9.i12 = icmp eq ptr %.pre.i11, null
  br i1 %.not9.i12, label %Vec_BitFreeP.exit14, label %.thread.i13

.thread.i13:                                      ; preds = %25, %22
  %28 = phi ptr [ %.pre.i11, %25 ], [ %20, %22 ]
  tail call void @free(ptr noundef nonnull %28) #22
  store ptr null, ptr %19, align 8
  br label %Vec_BitFreeP.exit14

Vec_BitFreeP.exit14:                              ; preds = %Vec_BitFreeP.exit, %25, %.thread.i13
  %29 = getelementptr inbounds nuw i8, ptr %0, i64 80
  %30 = load ptr, ptr %29, align 8
  %31 = getelementptr inbounds nuw i8, ptr %30, i64 8
  %32 = load ptr, ptr %31, align 8
  %.not.i15 = icmp eq ptr %32, null
  br i1 %.not.i15, label %Vec_IntFree.exit, label %33

33:                                               ; preds = %Vec_BitFreeP.exit14
  tail call void @free(ptr noundef nonnull %32) #22
  br label %Vec_IntFree.exit

Vec_IntFree.exit:                                 ; preds = %Vec_BitFreeP.exit14, %33
  tail call void @free(ptr noundef nonnull %30) #22
  %34 = getelementptr inbounds nuw i8, ptr %0, i64 56
  %35 = load ptr, ptr %34, align 8
  %36 = getelementptr inbounds nuw i8, ptr %35, i64 8
  %37 = load ptr, ptr %36, align 8
  %.not.i16 = icmp eq ptr %37, null
  br i1 %.not.i16, label %Vec_IntFree.exit17, label %38

38:                                               ; preds = %Vec_IntFree.exit
  tail call void @free(ptr noundef nonnull %37) #22
  br label %Vec_IntFree.exit17

Vec_IntFree.exit17:                               ; preds = %Vec_IntFree.exit, %38
  tail call void @free(ptr noundef nonnull %35) #22
  %39 = getelementptr inbounds nuw i8, ptr %0, i64 48
  %40 = load ptr, ptr %39, align 8
  %41 = getelementptr inbounds nuw i8, ptr %40, i64 8
  %42 = load ptr, ptr %41, align 8
  %.not.i18 = icmp eq ptr %42, null
  br i1 %.not.i18, label %44, label %43

43:                                               ; preds = %Vec_IntFree.exit17
  tail call void @free(ptr noundef nonnull %42) #22
  br label %44

44:                                               ; preds = %Vec_IntFree.exit17, %43
  tail call void @free(ptr noundef nonnull %40) #22
  tail call void @free(ptr noundef nonnull %0) #22
  ret void
}